ccopy_reg
_reconstructor
p0
(csklearn.dummy
DummyClassifier
p1
c__builtin__
object
p2
Ntp3
Rp4
(dp5
S'constant'
p6
NsS'n_outputs_'
p7
I1
sS'n_classes_'
p8
I2
sS'classes_'
p9
cnumpy.core.multiarray
_reconstruct
p10
(cnumpy
ndarray
p11
(I0
tp12
S'b'
p13
tp14
Rp15
(I1
(I2
tp16
cnumpy
dtype
p17
(S'i8'
p18
I0
I1
tp19
Rp20
(I3
S'<'
p21
NNNI-1
I-1
I0
tp22
bI00
S'\x00\x00\x00\x00\x00\x00\x00\x00\x01\x00\x00\x00\x00\x00\x00\x00'
p23
tp24
bsS'strategy'
p25
S'stratified'
p26
sS'random_state'
p27
I111
sS'_sklearn_version'
p28
S'0.20.3'
p29
sS'class_prior_'
p30
g10
(g11
(I0
tp31
g13
tp32
Rp33
(I1
(I2
tp34
g17
(S'f8'
p35
I0
I1
tp36
Rp37
(I3
S'<'
p38
NNNI-1
I-1
I0
tp39
bI00
S'\xae\xb6\xee3MN\xe5?\xa4\x92"\x98ec\xd5?'
p40
tp41
bsS'sparse_output_'
p42
I00
sS'output_2d_'
p43
I00
sb.